; Function Attrs: mustprogress uwtable
define hidden noundef i32 @_ZNK4cvc58internal6theory5arith6linear20LinearEqualityModule20minBoundAndColLengthEjj(ptr noundef nonnull readonly align 8 captures(none) dereferenceable(456) %0, i32 noundef %1, i32 noundef %2) local_unnamed_addr #3 align 2 {
  %4 = load ptr, ptr %0, align 8, !tbaa !35
  %5 = tail call noundef zeroext i1 @_ZNK4cvc58internal6theory5arith6linear14ArithVariables14hasEitherBoundEj(ptr noundef nonnull align 8 dereferenceable(568) %4, i32 noundef %1)
  br i1 %5, label %6, label %9

6:                                                ; preds = %3
  %7 = load ptr, ptr %0, align 8, !tbaa !35
  %8 = tail call noundef zeroext i1 @_ZNK4cvc58internal6theory5arith6linear14ArithVariables14hasEitherBoundEj(ptr noundef nonnull align 8 dereferenceable(568) %7, i32 noundef %2)
  br i1 %8, label %9, label %_ZNK4cvc58internal6theory5arith6linear20LinearEqualityModule12minColLengthEjj.exit

9:                                                ; preds = %6, %3
  %10 = load ptr, ptr %0, align 8, !tbaa !35
  %11 = tail call noundef zeroext i1 @_ZNK4cvc58internal6theory5arith6linear14ArithVariables14hasEitherBoundEj(ptr noundef nonnull align 8 dereferenceable(568) %10, i32 noundef %1)
  br i1 %11, label %15, label %12

12:                                               ; preds = %9
  %13 = load ptr, ptr %0, align 8, !tbaa !35
  %14 = tail call noundef zeroext i1 @_ZNK4cvc58internal6theory5arith6linear14ArithVariables14hasEitherBoundEj(ptr noundef nonnull align 8 dereferenceable(568) %13, i32 noundef %2)
  br i1 %14, label %_ZNK4cvc58internal6theory5arith6linear20LinearEqualityModule12minColLengthEjj.exit, label %15

15:                                               ; preds = %12, %9
  %16 = getelementptr inbounds nuw i8, ptr %0, i64 8
  %17 = load ptr, ptr %16, align 8, !tbaa !106
  %18 = getelementptr inbounds nuw i8, ptr %17, i64 24
  %19 = zext i32 %1 to i64
  %20 = load ptr, ptr %18, align 8, !tbaa !107
  %21 = getelementptr inbounds nuw %"class.cvc5::internal::theory::arith::linear::ColumnVector", ptr %20, i64 %19, i32 0, i32 1
  %22 = load i32, ptr %21, align 4, !tbaa !189
  %23 = zext i32 %2 to i64
  %24 = getelementptr inbounds nuw %"class.cvc5::internal::theory::arith::linear::ColumnVector", ptr %20, i64 %23, i32 0, i32 1
  %25 = load i32, ptr %24, align 4, !tbaa !189
  %26 = icmp ugt i32 %22, %25
  br i1 %26, label %_ZNK4cvc58internal6theory5arith6linear20LinearEqualityModule12minColLengthEjj.exit, label %27

27:                                               ; preds = %15
  %28 = icmp eq i32 %22, %25
  br i1 %28, label %29, label %_ZNK4cvc58internal6theory5arith6linear20LinearEqualityModule12minColLengthEjj.exit

29:                                               ; preds = %27
  %..i.i = tail call noundef i32 @llvm.umin.i32(i32 %1, i32 %2)
  br label %_ZNK4cvc58internal6theory5arith6linear20LinearEqualityModule12minColLengthEjj.exit

_ZNK4cvc58internal6theory5arith6linear20LinearEqualityModule12minColLengthEjj.exit: ; preds = %29, %27, %15, %12, %6
  %.0 = phi i32 [ %2, %6 ], [ %1, %12 ], [ %..i.i, %29 ], [ %2, %15 ], [ %1, %27 ]
  ret i32 %.0
}